; Function Attrs: nounwind sspstrong uwtable
define internal i64 @lazy_super(i32 noundef %0, ptr noundef %1, i64 %2) #0 {
  %4 = tail call i64 @rb_call_super(i32 noundef %0, ptr noundef %1) #18
  %5 = load i64, ptr @sym_each, align 8, !tbaa !7
  %6 = tail call i32 @rb_keyword_given_p() #18
  %7 = load i64, ptr @rb_cLazy, align 8, !tbaa !7
  %8 = tail call i64 @rb_data_typed_object_zalloc(i64 noundef %7, i64 noundef 96, ptr noundef nonnull @enumerator_data_type) #18
  %9 = inttoptr i64 %8 to ptr
  %10 = getelementptr inbounds nuw i8, ptr %9, i64 24
  %11 = load i64, ptr %10, align 8, !tbaa !11
  %12 = and i64 %11, 2
  %.not.i.i.i.i = icmp eq i64 %12, 0
  %13 = getelementptr i8, ptr %9, i64 32
  br i1 %.not.i.i.i.i, label %14, label %enumerable_lazy.exit

14:                                               ; preds = %3
  %15 = load ptr, ptr %13, align 8, !tbaa !16
  br label %enumerable_lazy.exit

enumerable_lazy.exit:                             ; preds = %3, %14
  %16 = phi ptr [ %15, %14 ], [ %13, %3 ]
  store i64 36, ptr %16, align 8, !tbaa !17
  %17 = tail call fastcc i64 @enumerator_init(i64 noundef %8, i64 noundef %4, i64 noundef %5, i32 noundef 0, ptr noundef null, ptr noundef nonnull @lazyenum_size, i64 noundef 4, i32 noundef %6)
  %18 = load i64, ptr @id_method, align 8, !tbaa !7
  %19 = tail call i64 @rb_ivar_set(i64 noundef %8, i64 noundef %18, i64 noundef 0) #18
  ret i64 %8
}